target datalayout = "e-m:e-p270:32:32-p271:32:32-p272:64:64-i64:64-i128:128-f80:128-n8:16:32:64-S128"
target triple = "x86_64-pc-linux-gnu"

%struct._lv_animimg_t = type { %struct._lv_image_t, %struct._lv_anim_t, ptr, i8 }
%struct._lv_image_t = type { %struct._lv_obj_t, ptr, ptr, %struct.lv_point_t, i32, i32, i32, i32, i32, %struct.lv_point_t, i16 }
%struct._lv_obj_t = type { ptr, ptr, ptr, ptr, ptr, %struct.lv_area_t, i32, i16, i16 }
%struct.lv_area_t = type { i32, i32, i32, i32 }
%struct.lv_point_t = type { i32, i32 }
%struct._lv_anim_t = type { ptr, ptr, ptr, ptr, ptr, ptr, ptr, ptr, ptr, i32, i32, i32, i32, i32, i32, i32, i32, i32, %union._lv_anim_path_para_t, i32, i32, i32, i8 }
%union._lv_anim_path_para_t = type { %struct.lv_anim_bezier3_para_t }
%struct.lv_anim_bezier3_para_t = type { i16, i16, i16, i16 }

; Function Attrs: nounwind uwtable
define void @lv_animimg_set_src(ptr noundef %0, ptr noundef %1, i64 noundef %2) #0 {
  %4 = alloca ptr, align 8
  %5 = alloca ptr, align 8
  %6 = alloca i64, align 8
  %7 = alloca ptr, align 8
  store ptr %0, ptr %4, align 8, !tbaa !8
  store ptr %1, ptr %5, align 8, !tbaa !24
  store i64 %2, ptr %6, align 8, !tbaa !25
  br label %8

8:                                                ; preds = %3
  %9 = load ptr, ptr %4, align 8, !tbaa !8
  %10 = icmp ne ptr %9, null
  br i1 %10, label %15, label %11

11:                                               ; preds = %8
  br label %12

12:                                               ; preds = %11
  br label %13

13:                                               ; preds = %12
  br label %14

14:                                               ; preds = %13, %14
  br label %14

15:                                               ; preds = %8
  br label %16

16:                                               ; preds = %15
  call void @llvm.lifetime.start.p0(i64 8, ptr %7) #3
  %17 = load ptr, ptr %4, align 8, !tbaa !8
  store ptr %17, ptr %7, align 8, !tbaa !10
  %18 = load ptr, ptr %5, align 8, !tbaa !24
  %19 = load ptr, ptr %7, align 8, !tbaa !10
  %20 = getelementptr inbounds nuw %struct._lv_animimg_t, ptr %19, i32 0, i32 2
  store ptr %18, ptr %20, align 8, !tbaa !12
  %21 = load i64, ptr %6, align 8, !tbaa !25
  %22 = trunc i64 %21 to i8
  %23 = load ptr, ptr %7, align 8, !tbaa !10
  %24 = getelementptr inbounds nuw %struct._lv_animimg_t, ptr %23, i32 0, i32 3
  store i8 %22, ptr %24, align 8, !tbaa !23
  %25 = load ptr, ptr %7, align 8, !tbaa !10
  %26 = getelementptr inbounds nuw %struct._lv_animimg_t, ptr %25, i32 0, i32 1
  %27 = load i64, ptr %6, align 8, !tbaa !25
  %28 = trunc i64 %27 to i32
  call void @lv_anim_set_values(ptr noundef %26, i32 noundef 0, i32 noundef %28)
  call void @llvm.lifetime.end.p0(i64 8, ptr %7) #3
  ret void
}