; Function Attrs: nounwind uwtable
define void @lv_animimg_set_src(ptr noundef %0, ptr noundef %1, i64 noundef %2) local_unnamed_addr #0 {
  %.not = icmp eq ptr %0, null
  br i1 %.not, label %.preheader, label %4

.preheader:                                       ; preds = %3, %.preheader
  br label %.preheader

4:                                                ; preds = %3
  %5 = getelementptr inbounds nuw i8, ptr %0, i64 256
  store ptr %1, ptr %5, align 8, !tbaa !3
  %6 = trunc i64 %2 to i8
  %7 = getelementptr inbounds nuw i8, ptr %0, i64 264
  store i8 %6, ptr %7, align 8, !tbaa !19
  %8 = getelementptr inbounds nuw i8, ptr %0, i64 120
  %9 = trunc i64 %2 to i32
  tail call void @lv_anim_set_values(ptr noundef nonnull %8, i32 noundef 0, i32 noundef %9) #4
  ret void
}